; Function Attrs: nounwind
define dso_local ptr @rust_demangle(ptr noundef %0, i32 noundef %1) local_unnamed_addr #0 {
  %3 = alloca %struct.str_buf, align 8
  call void @llvm.lifetime.start.p0(i64 32, ptr nonnull %3) #11
  %4 = getelementptr inbounds nuw i8, ptr %3, i64 8
  %5 = getelementptr inbounds nuw i8, ptr %3, i64 16
  %6 = getelementptr inbounds nuw i8, ptr %3, i64 24
  call void @llvm.memset.p0.i64(ptr noundef nonnull align 8 dereferenceable(25) %3, i8 0, i64 25, i1 false)
  %7 = call zeroext i1 @rust_demangle_with_callback(ptr noundef %0, i32 noundef %1, ptr noundef nonnull @str_buf_demangle_callback, ptr noundef nonnull %3)
  br i1 %7, label %10, label %8

8:                                                ; preds = %2
  %9 = load ptr, ptr %3, align 8, !tbaa !35
  call void @free(ptr noundef %9) #11
  br label %37

10:                                               ; preds = %2
  %11 = load i8, ptr %6, align 8, !tbaa !37, !range !24, !noundef !25
  %12 = trunc nuw i8 %11 to i1
  br i1 %12, label %str_buf_append.exit, label %13

13:                                               ; preds = %10
  %14 = load i64, ptr %5, align 8, !tbaa !38
  %15 = load i64, ptr %4, align 8, !tbaa !39
  %.not.i.i = icmp eq i64 %14, %15
  br i1 %.not.i.i, label %16, label %.str_buf_reserve.exit.thread10.i_crit_edge

.str_buf_reserve.exit.thread10.i_crit_edge:       ; preds = %13
  %.pre = load ptr, ptr %3, align 8, !tbaa !35
  br label %str_buf_reserve.exit.thread10.i

16:                                               ; preds = %13
  %17 = add i64 %14, 1
  %18 = icmp eq i64 %14, -1
  br i1 %18, label %str_buf_append.exit, label %19

19:                                               ; preds = %16
  %20 = icmp eq i64 %14, 0
  %spec.store.select.i.i = select i1 %20, i64 4, i64 %14
  br label %21

21:                                               ; preds = %23, %19
  %.0.i.i = phi i64 [ %spec.store.select.i.i, %19 ], [ %24, %23 ]
  %22 = icmp ult i64 %.0.i.i, %17
  br i1 %22, label %23, label %26

23:                                               ; preds = %21
  %24 = shl i64 %.0.i.i, 1
  %25 = icmp ult i64 %24, %14
  br i1 %25, label %str_buf_append.exit, label %21, !llvm.loop !40

26:                                               ; preds = %21
  %27 = load ptr, ptr %3, align 8, !tbaa !35
  %28 = call ptr @realloc(ptr noundef %27, i64 noundef %.0.i.i) #13
  %29 = icmp eq ptr %28, null
  br i1 %29, label %30, label %str_buf_reserve.exit.i

30:                                               ; preds = %26
  %31 = load ptr, ptr %3, align 8, !tbaa !35
  call void @free(ptr noundef %31) #11
  call void @llvm.memset.p0.i64(ptr noundef nonnull align 8 dereferenceable(24) %3, i8 0, i64 24, i1 false)
  br label %str_buf_append.exit

str_buf_reserve.exit.i:                           ; preds = %26
  store ptr %28, ptr %3, align 8, !tbaa !35
  %.pre.i = load i8, ptr %6, align 8, !tbaa !37, !range !24
  %32 = trunc nuw i8 %.pre.i to i1
  br i1 %32, label %str_buf_append.exit, label %str_buf_reserve.exit.i.str_buf_reserve.exit.thread10.i_crit_edge

str_buf_reserve.exit.i.str_buf_reserve.exit.thread10.i_crit_edge: ; preds = %str_buf_reserve.exit.i
  %.pre5 = load i64, ptr %4, align 8, !tbaa !39
  br label %str_buf_reserve.exit.thread10.i

str_buf_reserve.exit.thread10.i:                  ; preds = %str_buf_reserve.exit.i.str_buf_reserve.exit.thread10.i_crit_edge, %.str_buf_reserve.exit.thread10.i_crit_edge
  %33 = phi i64 [ %15, %.str_buf_reserve.exit.thread10.i_crit_edge ], [ %.pre5, %str_buf_reserve.exit.i.str_buf_reserve.exit.thread10.i_crit_edge ]
  %34 = phi ptr [ %.pre, %.str_buf_reserve.exit.thread10.i_crit_edge ], [ %28, %str_buf_reserve.exit.i.str_buf_reserve.exit.thread10.i_crit_edge ]
  %35 = getelementptr inbounds nuw i8, ptr %34, i64 %33
  store i8 0, ptr %35, align 1
  br label %str_buf_append.exit

str_buf_append.exit:                              ; preds = %23, %16, %10, %30, %str_buf_reserve.exit.i, %str_buf_reserve.exit.thread10.i
  %36 = load ptr, ptr %3, align 8, !tbaa !35
  br label %37

37:                                               ; preds = %str_buf_append.exit, %8
  %.0 = phi ptr [ %36, %str_buf_append.exit ], [ null, %8 ]
  call void @llvm.lifetime.end.p0(i64 32, ptr nonnull %3) #11
  ret ptr %.0
}